EXPORTS 
	??_R0?AVbad_alloc@std@@@8 	 DATA
	??_R0?AVbad_array_new_length@std@@@8 	 DATA
	??_R0?AVexception@std@@@8 	 DATA
	??_R0?AVinvalid_argument@std@@@8 	 DATA
	??_R0?AVlogic_error@std@@@8 	 DATA
	??$?0$$V@?$_Compressed_pair@V?$allocator@H@std@@V?$_Vector_val@U?$_Simple_types@H@std@@@2@$00@std@@QEAA@U_Zero_then_variadic_args_t@1@@Z
	??$?0$$V@?$_Compressed_pair@V?$allocator@U?$Pair@HH@nestea@@@std@@V?$_Vector_val@U?$_Simple_types@U?$Pair@HH@nestea@@@std@@@2@$00@std@@QEAA@U_Zero_then_variadic_args_t@1@@Z
	??$?0H@?$allocator@U_Container_proxy@std@@@std@@QEAA@AEBV?$allocator@H@1@@Z
	??$?0U?$Pair@HH@nestea@@@?$allocator@U_Container_proxy@std@@@std@@QEAA@AEBV?$allocator@U?$Pair@HH@nestea@@@1@@Z
	??$?6U?$char_traits@D@std@@@std@@YAAEAV?$basic_ostream@DU?$char_traits@D@std@@@0@AEAV10@PEBD@Z
	??$?RV?$mersenne_twister_engine@I$0CA@$0CHA@$0BIN@$0BP@$0JJAILANP@$0L@$0PPPPPPPP@$06$0JNCMFGIA@$0P@$0OPMGAAAA@$0BC@$0GMAHIJGF@@std@@@?$uniform_int@H@std@@QEAAHAEAV?$mersenne_twister_engine@I$0CA@$0CHA@$0BIN@$0BP@$0JJAILANP@$0L@$0PPPPPPPP@$06$0JNCMFGIA@$0P@$0OPMGAAAA@$0BC@$0GMAHIJGF@@1@@Z
	??$_Alloc_proxy@V?$allocator@U_Container_proxy@std@@@std@@@_Container_base12@std@@QEAAX$$QEAV?$allocator@U_Container_proxy@std@@@1@@Z
	??$_Allocate@$0BA@U_Default_allocate_traits@std@@$0A@@std@@YAPEAX_K@Z
	??$_Allocate_manually_vector_aligned@U_Default_allocate_traits@std@@@std@@YAPEAX_K@Z
	??$_Construct_in_place@HAEBH@std@@YAXAEAHAEBH@Z
	??$_Construct_in_place@HH@std@@YAXAEAH$$QEAH@Z
	??$_Construct_in_place@U_Container_proxy@std@@PEAU_Container_base12@2@@std@@YAXAEAU_Container_proxy@0@$$QEAPEAU_Container_base12@0@@Z
	??$_Copy_memmove@PEAHPEAH@std@@YAPEAHPEAH00@Z
	??$_Copy_memmove@PEAU?$Pair@HH@nestea@@PEAU12@@std@@YAPEAU?$Pair@HH@nestea@@PEAU12@00@Z
	??$_Deallocate@$0BA@$0A@@std@@YAXPEAX_K@Z
	??$_Deallocate_plain@V?$allocator@U_Container_proxy@std@@@std@@@std@@YAXAEAV?$allocator@U_Container_proxy@std@@@0@QEAU_Container_proxy@0@@Z
	??$_Delete_plain_internal@V?$allocator@U_Container_proxy@std@@@std@@@std@@YAXAEAV?$allocator@U_Container_proxy@std@@@0@QEAU_Container_proxy@0@@Z
	??$_Destroy_range@V?$allocator@H@std@@@std@@YAXPEAHQEAHAEAV?$allocator@H@0@@Z
	??$_Destroy_range@V?$allocator@U?$Pair@HH@nestea@@@std@@@std@@YAXPEAU?$Pair@HH@nestea@@QEAU12@AEAV?$allocator@U?$Pair@HH@nestea@@@0@@Z
	??$_Emplace_back@$$V@?$_Uninitialized_backout_al@V?$allocator@U?$Pair@HH@nestea@@@std@@@std@@QEAAXXZ
	??$_Emplace_back@H@?$_Uninitialized_backout_al@V?$allocator@H@std@@@std@@QEAAX$$QEAH@Z
	??$_Emplace_back@U?$Pair@HH@nestea@@@?$_Uninitialized_backout_al@V?$allocator@U?$Pair@HH@nestea@@@std@@@std@@QEAAX$$QEAU?$Pair@HH@nestea@@@Z
	??$_Emplace_back_with_unused_capacity@AEBH@?$vector@HV?$allocator@H@std@@@std@@AEAAAEAHAEBH@Z
	??$_Emplace_back_with_unused_capacity@H@?$vector@HV?$allocator@H@std@@@std@@AEAAAEAH$$QEAH@Z
	??$_Emplace_one_at_back@AEBH@?$vector@HV?$allocator@H@std@@@std@@AEAAAEAHAEBH@Z
	??$_Emplace_one_at_back@H@?$vector@HV?$allocator@H@std@@@std@@AEAAAEAH$$QEAH@Z
	??$_Emplace_reallocate@AEBH@?$vector@HV?$allocator@H@std@@@std@@AEAAPEAHQEAHAEBH@Z
	??$_Emplace_reallocate@H@?$vector@HV?$allocator@H@std@@@std@@AEAAPEAHQEAH$$QEAH@Z
	??$_Eval@V?$mersenne_twister_engine@I$0CA@$0CHA@$0BIN@$0BP@$0JJAILANP@$0L@$0PPPPPPPP@$06$0JNCMFGIA@$0P@$0OPMGAAAA@$0BC@$0GMAHIJGF@@std@@@?$uniform_int@H@std@@AEBAHAEAV?$mersenne_twister_engine@I$0CA@$0CHA@$0BIN@$0BP@$0JJAILANP@$0L@$0PPPPPPPP@$06$0JNCMFGIA@$0P@$0OPMGAAAA@$0BC@$0GMAHIJGF@@1@HH@Z
	??$_Get_size_of_n@$03@std@@YA_K_K@Z
	??$_Get_size_of_n@$0BA@@std@@YA_K_K@Z
	??$_Get_size_of_n@$0M@@std@@YA_K_K@Z
	??$_Get_unwrapped@AEBQEAH@std@@YA?A_TAEBQEAH@Z
	??$_Get_unwrapped@AEBQEAU?$Pair@HH@nestea@@@std@@YA?A_TAEBQEAU?$Pair@HH@nestea@@@Z
	??$_Getvals@_W@?$time_get@DV?$istreambuf_iterator@DU?$char_traits@D@std@@@std@@@std@@IEAAX_WAEBV_Locinfo@1@@Z
	??$_Getvals@_W@?$time_get@_WV?$istreambuf_iterator@_WU?$char_traits@_W@std@@@std@@@std@@IEAAX_WAEBV_Locinfo@1@@Z
	??$_Maklocstr@D@std@@YAPEADPEBDPEADAEBU_Cvtvec@@@Z
	??$_Maklocstr@_W@std@@YAPEA_WPEBDPEA_WAEBU_Cvtvec@@@Z
	??$_Resize@U_Value_init_tag@std@@@?$vector@U?$Pair@HH@nestea@@V?$allocator@U?$Pair@HH@nestea@@@std@@@std@@AEAAX_KAEBU_Value_init_tag@1@@Z
	??$_Resize_reallocate@U_Value_init_tag@std@@@?$vector@U?$Pair@HH@nestea@@V?$allocator@U?$Pair@HH@nestea@@@std@@@std@@AEAAX_KAEBU_Value_init_tag@1@@Z
	??$_To_address@PEAH@std@@YA?A_PAEBQEAH@Z
	??$_To_address@PEAU?$Pair@HH@nestea@@@std@@YA?A_PAEBQEAU?$Pair@HH@nestea@@@Z
	??$_Unfancy@H@std@@YAPEAHPEAH@Z
	??$_Unfancy@U?$Pair@HH@nestea@@@std@@YAPEAU?$Pair@HH@nestea@@PEAU12@@Z
	??$_Unfancy@U_Container_proxy@std@@@std@@YAPEAU_Container_proxy@0@PEAU10@@Z
	??$_Uninitialized_move@PEAHV?$allocator@H@std@@@std@@YAPEAHQEAH0PEAHAEAV?$allocator@H@0@@Z
	??$_Uninitialized_move@PEAU?$Pair@HH@nestea@@V?$allocator@U?$Pair@HH@nestea@@@std@@@std@@YAPEAU?$Pair@HH@nestea@@QEAU12@0PEAU12@AEAV?$allocator@U?$Pair@HH@nestea@@@0@@Z
	??$_Uninitialized_value_construct_n@V?$allocator@U?$Pair@HH@nestea@@@std@@@std@@YAPEAU?$Pair@HH@nestea@@PEAU12@_KAEAV?$allocator@U?$Pair@HH@nestea@@@0@@Z
	??$addressof@H@std@@YAPEAHAEAH@Z
	??$addressof@U_Container_proxy@std@@@std@@YAPEAU_Container_proxy@0@AEAU10@@Z
	??$construct@HAEBH@?$_Default_allocator_traits@V?$allocator@H@std@@@std@@SAXAEAV?$allocator@H@1@QEAHAEBH@Z
	??$construct@HH@?$_Default_allocator_traits@V?$allocator@H@std@@@std@@SAXAEAV?$allocator@H@1@QEAH$$QEAH@Z
	??$construct@U?$Pair@HH@nestea@@$$V@?$_Default_allocator_traits@V?$allocator@U?$Pair@HH@nestea@@@std@@@std@@SAXAEAV?$allocator@U?$Pair@HH@nestea@@@1@QEAU?$Pair@HH@nestea@@@Z
	??$construct@U?$Pair@HH@nestea@@U12@@?$_Default_allocator_traits@V?$allocator@U?$Pair@HH@nestea@@@std@@@std@@SAXAEAV?$allocator@U?$Pair@HH@nestea@@@1@QEAU?$Pair@HH@nestea@@$$QEAU34@@Z
	??$construct_at@HAEBH$0A@@std@@YAPEAHQEAHAEBH@Z
	??$construct_at@HH$0A@@std@@YAPEAHQEAH$$QEAH@Z
	??$construct_at@U?$Pair@HH@nestea@@$$V$0A@@std@@YAPEAU?$Pair@HH@nestea@@QEAU12@@Z
	??$construct_at@U?$Pair@HH@nestea@@U12@$0A@@std@@YAPEAU?$Pair@HH@nestea@@QEAU12@$$QEAU12@@Z
	??$construct_at@U_Container_proxy@std@@PEAU_Container_base12@2@$0A@@std@@YAPEAU_Container_proxy@0@QEAU10@$$QEAPEAU_Container_base12@0@@Z
	??$exchange@PEAU_Container_proxy@std@@$$T@std@@YAPEAU_Container_proxy@0@AEAPEAU10@$$QEA$$T@Z
	??$exchange@PEAU_Iterator_base12@std@@$$T@std@@YAPEAU_Iterator_base12@0@AEAPEAU10@$$QEA$$T@Z
	??$fmod@NH$0A@@@YANNH@Z
	??$fmod@_K_K$0A@@@YAN_K0@Z
	??$min@_K@std@@YAAEB_KAEB_K0@Z
	??$sqrt@H$0A@@@YANH@Z
	??$to_address@H@std@@YAPEAHQEAH@Z
	??$to_address@U?$Pair@HH@nestea@@@std@@YAPEAU?$Pair@HH@nestea@@QEAU12@@Z
	??0?$HashTable@HH@nestea@@QEAA@_K@Z
	??0?$Pair@HH@nestea@@QEAA@HH@Z
	??0?$Pair@HH@nestea@@QEAA@XZ
	??0?$_Rng_from_urng_v2@IV?$mersenne_twister_engine@I$0CA@$0CHA@$0BIN@$0BP@$0JJAILANP@$0L@$0PPPPPPPP@$06$0JNCMFGIA@$0P@$0OPMGAAAA@$0BC@$0GMAHIJGF@@std@@@std@@QEAA@AEAV?$mersenne_twister_engine@I$0CA@$0CHA@$0BIN@$0BP@$0JJAILANP@$0L@$0PPPPPPPP@$06$0JNCMFGIA@$0P@$0OPMGAAAA@$0BC@$0GMAHIJGF@@1@@Z
	??0?$_Uninitialized_backout_al@V?$allocator@H@std@@@std@@QEAA@PEAHAEAV?$allocator@H@1@@Z
	??0?$_Uninitialized_backout_al@V?$allocator@U?$Pair@HH@nestea@@@std@@@std@@QEAA@PEAU?$Pair@HH@nestea@@AEAV?$allocator@U?$Pair@HH@nestea@@@1@@Z
	??0?$_Vector_val@U?$_Simple_types@H@std@@@std@@QEAA@XZ
	??0?$_Vector_val@U?$_Simple_types@U?$Pair@HH@nestea@@@std@@@std@@QEAA@XZ
	??0?$allocator@H@std@@QEAA@XZ
	??0?$allocator@U?$Pair@HH@nestea@@@std@@QEAA@XZ
	??0?$mersenne_twister@I$0CA@$0CHA@$0BIN@$0BP@$0JJAILANP@$0L@$06$0JNCMFGIA@$0P@$0OPMGAAAA@$0BC@@std@@QEAA@III@Z
	??0?$mersenne_twister_engine@I$0CA@$0CHA@$0BIN@$0BP@$0JJAILANP@$0L@$0PPPPPPPP@$06$0JNCMFGIA@$0P@$0OPMGAAAA@$0BC@$0GMAHIJGF@@std@@QEAA@I@Z
	??0?$uniform_int@H@std@@QEAA@HH@Z
	??0?$uniform_int_distribution@H@std@@QEAA@HH@Z
	??0?$vector@HV?$allocator@H@std@@@std@@QEAA@XZ
	??0?$vector@U?$Pair@HH@nestea@@V?$allocator@U?$Pair@HH@nestea@@@std@@@std@@QEAA@XZ
	??0_Container_base12@std@@QEAA@XZ
	??0_Container_proxy@std@@QEAA@PEAU_Container_base12@1@@Z
	??0_Sentry_base@?$basic_ostream@DU?$char_traits@D@std@@@std@@QEAA@AEAV12@@Z
	??0bad_alloc@std@@AEAA@QEBD@Z
	??0bad_alloc@std@@QEAA@AEBV01@@Z
	??0bad_array_new_length@std@@QEAA@AEBV01@@Z
	??0bad_array_new_length@std@@QEAA@XZ
	??0exception@std@@QEAA@AEBV01@@Z
	??0exception@std@@QEAA@QEBD@Z
	??0exception@std@@QEAA@QEBDH@Z
	??0invalid_argument@std@@QEAA@AEBV01@@Z
	??0invalid_argument@std@@QEAA@PEBD@Z
	??0logic_error@std@@QEAA@AEBV01@@Z
	??0logic_error@std@@QEAA@PEBD@Z
	??0param_type@?$uniform_int@H@std@@QEAA@HH@Z
	??0random_device@std@@QEAA@XZ
	??0sentry@?$basic_ostream@DU?$char_traits@D@std@@@std@@QEAA@AEAV12@@Z
	??1?$HashTable@HH@nestea@@QEAA@XZ
	??1?$_Uninitialized_backout_al@V?$allocator@H@std@@@std@@QEAA@XZ
	??1?$_Uninitialized_backout_al@V?$allocator@U?$Pair@HH@nestea@@@std@@@std@@QEAA@XZ
	??1?$vector@HV?$allocator@H@std@@@std@@QEAA@XZ
	??1?$vector@U?$Pair@HH@nestea@@V?$allocator@U?$Pair@HH@nestea@@@std@@@std@@QEAA@XZ
	??1_Sentry_base@?$basic_ostream@DU?$char_traits@D@std@@@std@@QEAA@XZ
	??1bad_alloc@std@@UEAA@XZ
	??1bad_array_new_length@std@@UEAA@XZ
	??1exception@std@@UEAA@XZ
	??1invalid_argument@std@@UEAA@XZ
	??1logic_error@std@@UEAA@XZ
	??1sentry@?$basic_ostream@DU?$char_traits@D@std@@@std@@QEAA@XZ
	??2@YAPEAX_KPEAX@Z
	??A?$vector@HV?$allocator@H@std@@@std@@QEAAAEAH_K@Z
	??A?$vector@U?$Pair@HH@nestea@@V?$allocator@U?$Pair@HH@nestea@@@std@@@std@@QEAAAEAU?$Pair@HH@nestea@@_K@Z
	??Bsentry@?$basic_ostream@DU?$char_traits@D@std@@@std@@QEBA_NXZ
	??R?$_Rng_from_urng_v2@IV?$mersenne_twister_engine@I$0CA@$0CHA@$0BIN@$0BP@$0JJAILANP@$0L@$0PPPPPPPP@$06$0JNCMFGIA@$0P@$0OPMGAAAA@$0BC@$0GMAHIJGF@@std@@@std@@QEAAII@Z
	??R?$mersenne_twister@I$0CA@$0CHA@$0BIN@$0BP@$0JJAILANP@$0L@$06$0JNCMFGIA@$0P@$0OPMGAAAA@$0BC@@std@@QEAAIXZ
	??Rrandom_device@std@@QEAAIXZ
	?_Adjust@?$uniform_int@H@std@@CAII@Z
	?_Adjust_manually_vector_aligned@std@@YAXAEAPEAXAEA_K@Z
	?_Allocate@_Default_allocate_traits@std@@SAPEAX_K@Z
	?_Calculate_growth@?$vector@HV?$allocator@H@std@@@std@@AEBA_K_K@Z
	?_Calculate_growth@?$vector@U?$Pair@HH@nestea@@V?$allocator@U?$Pair@HH@nestea@@@std@@@std@@AEBA_K_K@Z
	?_Change_array@?$vector@HV?$allocator@H@std@@@std@@AEAAXQEAH_K1@Z
	?_Change_array@?$vector@U?$Pair@HH@nestea@@V?$allocator@U?$Pair@HH@nestea@@@std@@@std@@AEAAXQEAU?$Pair@HH@nestea@@_K1@Z
	?_Get_all_bits@?$_Rng_from_urng_v2@IV?$mersenne_twister_engine@I$0CA@$0CHA@$0BIN@$0BP@$0JJAILANP@$0L@$0PPPPPPPP@$06$0JNCMFGIA@$0P@$0OPMGAAAA@$0BC@$0GMAHIJGF@@std@@@std@@QEAAIXZ
	?_Get_bits@?$_Rng_from_urng_v2@IV?$mersenne_twister_engine@I$0CA@$0CHA@$0BIN@$0BP@$0JJAILANP@$0L@$0PPPPPPPP@$06$0JNCMFGIA@$0P@$0OPMGAAAA@$0BC@$0GMAHIJGF@@std@@@std@@AEAAIXZ
	?_Get_first@?$_Compressed_pair@V?$allocator@H@std@@V?$_Vector_val@U?$_Simple_types@H@std@@@2@$00@std@@QEAAAEAV?$allocator@H@2@XZ
	?_Get_first@?$_Compressed_pair@V?$allocator@H@std@@V?$_Vector_val@U?$_Simple_types@H@std@@@2@$00@std@@QEBAAEBV?$allocator@H@2@XZ
	?_Get_first@?$_Compressed_pair@V?$allocator@U?$Pair@HH@nestea@@@std@@V?$_Vector_val@U?$_Simple_types@U?$Pair@HH@nestea@@@std@@@2@$00@std@@QEAAAEAV?$allocator@U?$Pair@HH@nestea@@@2@XZ
	?_Get_first@?$_Compressed_pair@V?$allocator@U?$Pair@HH@nestea@@@std@@V?$_Vector_val@U?$_Simple_types@U?$Pair@HH@nestea@@@std@@@2@$00@std@@QEBAAEBV?$allocator@U?$Pair@HH@nestea@@@2@XZ
	?_Get_random_product@?$_Rng_from_urng_v2@IV?$mersenne_twister_engine@I$0CA@$0CHA@$0BIN@$0BP@$0JJAILANP@$0L@$0PPPPPPPP@$06$0JNCMFGIA@$0P@$0OPMGAAAA@$0BC@$0GMAHIJGF@@std@@@std@@AEAA_KII@Z
	?_Getal@?$vector@HV?$allocator@H@std@@@std@@AEAAAEAV?$allocator@H@2@XZ
	?_Getal@?$vector@HV?$allocator@H@std@@@std@@AEBAAEBV?$allocator@H@2@XZ
	?_Getal@?$vector@U?$Pair@HH@nestea@@V?$allocator@U?$Pair@HH@nestea@@@std@@@std@@AEAAAEAV?$allocator@U?$Pair@HH@nestea@@@2@XZ
	?_Getal@?$vector@U?$Pair@HH@nestea@@V?$allocator@U?$Pair@HH@nestea@@@std@@@std@@AEBAAEBV?$allocator@U?$Pair@HH@nestea@@@2@XZ
	?_Init@param_type@?$uniform_int@H@std@@QEAAXHH@Z
	?_Maklocwcs@std@@YAPEA_WPEB_W@Z
	?_Orphan_all@_Container_base12@std@@QEAAXXZ
	?_Orphan_all_locked_v3@_Container_base12@std@@AEAAXXZ
	?_Orphan_all_unlocked_v3@_Container_base12@std@@AEAAXXZ
	?_Orphan_range@?$vector@HV?$allocator@H@std@@@std@@AEBAXPEAH0@Z
	?_Orphan_range@?$vector@U?$Pair@HH@nestea@@V?$allocator@U?$Pair@HH@nestea@@@std@@@std@@AEBAXPEAU?$Pair@HH@nestea@@0@Z
	?_Orphan_range_locked@?$vector@HV?$allocator@H@std@@@std@@AEBAXPEAH0@Z
	?_Orphan_range_locked@?$vector@U?$Pair@HH@nestea@@V?$allocator@U?$Pair@HH@nestea@@@std@@@std@@AEBAXPEAU?$Pair@HH@nestea@@0@Z
	?_Orphan_range_unlocked@?$vector@HV?$allocator@H@std@@@std@@AEBAXPEAH0@Z
	?_Orphan_range_unlocked@?$vector@U?$Pair@HH@nestea@@V?$allocator@U?$Pair@HH@nestea@@@std@@@std@@AEBAXPEAU?$Pair@HH@nestea@@0@Z
	?_Refill_lower@?$mersenne_twister@I$0CA@$0CHA@$0BIN@$0BP@$0JJAILANP@$0L@$06$0JNCMFGIA@$0P@$0OPMGAAAA@$0BC@@std@@IEAAXXZ
	?_Refill_upper@?$mersenne_twister@I$0CA@$0CHA@$0BIN@$0BP@$0JJAILANP@$0L@$06$0JNCMFGIA@$0P@$0OPMGAAAA@$0BC@@std@@IEAAXXZ
	?_Release@?$_Uninitialized_backout_al@V?$allocator@H@std@@@std@@QEAAPEAHXZ
	?_Release@?$_Uninitialized_backout_al@V?$allocator@U?$Pair@HH@nestea@@@std@@@std@@QEAAPEAU?$Pair@HH@nestea@@XZ
	?_Throw_bad_array_new_length@std@@YAXXZ
	?_Tidy@?$vector@HV?$allocator@H@std@@@std@@AEAAXXZ
	?_Tidy@?$vector@U?$Pair@HH@nestea@@V?$allocator@U?$Pair@HH@nestea@@@std@@@std@@AEAAXXZ
	?_Unchecked_begin@?$vector@U?$Pair@HH@nestea@@V?$allocator@U?$Pair@HH@nestea@@@std@@@std@@QEAAPEAU?$Pair@HH@nestea@@XZ
	?_Unchecked_end@?$vector@U?$Pair@HH@nestea@@V?$allocator@U?$Pair@HH@nestea@@@std@@@std@@QEAAPEAU?$Pair@HH@nestea@@XZ
	?_Xlength@?$vector@HV?$allocator@H@std@@@std@@CAXXZ
	?_Xlength@?$vector@U?$Pair@HH@nestea@@V?$allocator@U?$Pair@HH@nestea@@@std@@@std@@CAXXZ
	?__empty_global_delete@@YAXPEAX@Z
	?__empty_global_delete@@YAXPEAXW4align_val_t@std@@@Z
	?__empty_global_delete@@YAXPEAX_K@Z
	?__empty_global_delete@@YAXPEAX_KW4align_val_t@std@@@Z
	?allocate@?$allocator@H@std@@QEAAPEAH_K@Z
	?allocate@?$allocator@U?$Pair@HH@nestea@@@std@@QEAAPEAU?$Pair@HH@nestea@@_K@Z
	?allocate@?$allocator@U_Container_proxy@std@@@std@@QEAAPEAU_Container_proxy@2@_K@Z
	?capacity@?$vector@HV?$allocator@H@std@@@std@@QEBA_KXZ
	?capacity@?$vector@U?$Pair@HH@nestea@@V?$allocator@U?$Pair@HH@nestea@@@std@@@std@@QEBA_KXZ
	?clear@?$HashTable@HH@nestea@@AEAAXXZ
	?clear@?$vector@U?$Pair@HH@nestea@@V?$allocator@U?$Pair@HH@nestea@@@std@@@std@@QEAAXXZ
	?count_elements@@YA?AV?$HashTable@HH@nestea@@PEAH_KHH@Z
	?counts@?$HashTable@HH@nestea@@QEAAHH@Z
	?deallocate@?$_Default_allocator_traits@V?$allocator@U_Container_proxy@std@@@std@@@std@@SAXAEAV?$allocator@U_Container_proxy@std@@@2@QEAU_Container_proxy@2@_K@Z
	?deallocate@?$allocator@H@std@@QEAAXQEAH_K@Z
	?deallocate@?$allocator@U?$Pair@HH@nestea@@@std@@QEAAXQEAU?$Pair@HH@nestea@@_K@Z
	?deallocate@?$allocator@U_Container_proxy@std@@@std@@QEAAXQEAU_Container_proxy@2@_K@Z
	?eof@?$_Narrow_char_traits@DH@std@@SAHXZ
	?eq_int_type@?$_Narrow_char_traits@DH@std@@SA_NAEBH0@Z
	?hash_function@?$HashTable@HH@nestea@@QEAAHAEBH_K@Z
	?insert@?$HashTable@HH@nestea@@QEAAXHH@Z
	?is_constant_evaluated@std@@YA_NXZ
	?length@?$_Narrow_char_traits@DH@std@@SA_KQEBD@Z
	?max@?$numeric_limits@_J@std@@SA_JXZ
	?max_size@?$_Default_allocator_traits@V?$allocator@H@std@@@std@@SA_KAEBV?$allocator@H@2@@Z
	?max_size@?$_Default_allocator_traits@V?$allocator@U?$Pair@HH@nestea@@@std@@@std@@SA_KAEBV?$allocator@U?$Pair@HH@nestea@@@2@@Z
	?max_size@?$vector@HV?$allocator@H@std@@@std@@QEBA_KXZ
	?max_size@?$vector@U?$Pair@HH@nestea@@V?$allocator@U?$Pair@HH@nestea@@@std@@@std@@QEBA_KXZ
	?print@?$HashTable@HH@nestea@@QEAAXXZ
	?push_back@?$vector@HV?$allocator@H@std@@@std@@QEAAX$$QEAH@Z
	?push_back@?$vector@HV?$allocator@H@std@@@std@@QEAAXAEBH@Z
	?random_value@@YAHHH@Z
	?resize@?$vector@U?$Pair@HH@nestea@@V?$allocator@U?$Pair@HH@nestea@@@std@@@std@@QEAAX_K@Z
	?seed@?$mersenne_twister@I$0CA@$0CHA@$0BIN@$0BP@$0JJAILANP@$0L@$06$0JNCMFGIA@$0P@$0OPMGAAAA@$0BC@@std@@QEAAXII@Z
	?size@?$vector@HV?$allocator@H@std@@@std@@QEBA_KXZ
	?what@exception@std@@UEBAPEBDXZ
	main
	wmemcpy
